target datalayout = "e-m:e-p270:32:32-p271:32:32-p272:64:64-i64:64-i128:128-f80:128-n8:16:32:64-S128"
target triple = "x86_64-pc-linux-gnu"

%"class.cv::APNGFrame" = type { ptr, i32, i32, i8, [256 x %"struct.cv::rgb"], [256 x i8], i32, i32, i32, i32, %"class.std::vector" }
%"struct.cv::rgb" = type { i8, i8, i8 }
%"class.std::vector" = type { %"struct.std::_Vector_base" }
%"struct.std::_Vector_base" = type { %"struct.std::_Vector_base<unsigned char *, std::allocator<unsigned char *>>::_Vector_impl" }
%"struct.std::_Vector_base<unsigned char *, std::allocator<unsigned char *>>::_Vector_impl" = type { %"struct.std::_Vector_base<unsigned char *, std::allocator<unsigned char *>>::_Vector_impl_data" }
%"struct.std::_Vector_base<unsigned char *, std::allocator<unsigned char *>>::_Vector_impl_data" = type { ptr, ptr, ptr }
%"class.cv::Mat" = type { i32, i32, i32, i32, ptr, ptr, ptr, ptr, ptr, ptr, %"struct.cv::MatSize", %"struct.cv::MatStep" }
%"struct.cv::MatSize" = type { ptr }
%"struct.cv::MatStep" = type { ptr, [2 x i64] }
%"class.cv::PngDecoder" = type <{ %"class.cv::BaseImageDecoder", ptr, ptr, ptr, i32, [4 x i8], ptr, i32, [4 x i8], %"struct.cv::Chunk", i32, [4 x i8], i64, %"class.std::vector.21", %"class.cv::APNGFrame", %"class.cv::APNGFrame", %"class.cv::APNGFrame", %"class.cv::Mat", %"class.cv::Mat", i32, i32, i32, i32, i32, i32, i32, i32, i8, i8, [6 x i8] }>
%"class.cv::BaseImageDecoder" = type { ptr, i32, i32, i32, i32, %"class.std::__cxx11::basic_string", %"class.std::__cxx11::basic_string", %"class.cv::Mat", i8, i8, [6 x i8], %"class.cv::ExifReader", i64, %"struct.cv::Animation" }
%"class.std::__cxx11::basic_string" = type { %"struct.std::__cxx11::basic_string<char>::_Alloc_hider", i64, %union.anon }
%"struct.std::__cxx11::basic_string<char>::_Alloc_hider" = type { ptr }
%union.anon = type { i64, [8 x i8] }
%"class.cv::ExifReader" = type <{ %"class.std::vector.3", %"class.std::map", i32, [4 x i8] }>
%"class.std::vector.3" = type { %"struct.std::_Vector_base.4" }
%"struct.std::_Vector_base.4" = type { %"struct.std::_Vector_base<unsigned char, std::allocator<unsigned char>>::_Vector_impl" }
%"struct.std::_Vector_base<unsigned char, std::allocator<unsigned char>>::_Vector_impl" = type { %"struct.std::_Vector_base<unsigned char, std::allocator<unsigned char>>::_Vector_impl_data" }
%"struct.std::_Vector_base<unsigned char, std::allocator<unsigned char>>::_Vector_impl_data" = type { ptr, ptr, ptr }
%"class.std::map" = type { %"class.std::_Rb_tree" }
%"class.std::_Rb_tree" = type { %"struct.std::_Rb_tree<int, std::pair<const int, cv::ExifEntry_t>, std::_Select1st<std::pair<const int, cv::ExifEntry_t>>, std::less<int>>::_Rb_tree_impl" }
%"struct.std::_Rb_tree<int, std::pair<const int, cv::ExifEntry_t>, std::_Select1st<std::pair<const int, cv::ExifEntry_t>>, std::less<int>>::_Rb_tree_impl" = type { [8 x i8], %"struct.std::_Rb_tree_header" }
%"struct.std::_Rb_tree_header" = type { %"struct.std::_Rb_tree_node_base", i64 }
%"struct.std::_Rb_tree_node_base" = type { i32, ptr, ptr, ptr }
%"struct.cv::Animation" = type { i32, %"class.cv::Scalar_", %"class.std::vector.11", %"class.std::vector.16" }
%"class.cv::Scalar_" = type { %"class.cv::Vec" }
%"class.cv::Vec" = type { %"class.cv::Matx" }
%"class.cv::Matx" = type { [4 x double] }
%"class.std::vector.11" = type { %"struct.std::_Vector_base.12" }
%"struct.std::_Vector_base.12" = type { %"struct.std::_Vector_base<int, std::allocator<int>>::_Vector_impl" }
%"struct.std::_Vector_base<int, std::allocator<int>>::_Vector_impl" = type { %"struct.std::_Vector_base<int, std::allocator<int>>::_Vector_impl_data" }
%"struct.std::_Vector_base<int, std::allocator<int>>::_Vector_impl_data" = type { ptr, ptr, ptr }
%"class.std::vector.16" = type { %"struct.std::_Vector_base.17" }
%"struct.std::_Vector_base.17" = type { %"struct.std::_Vector_base<cv::Mat, std::allocator<cv::Mat>>::_Vector_impl" }
%"struct.std::_Vector_base<cv::Mat, std::allocator<cv::Mat>>::_Vector_impl" = type { %"struct.std::_Vector_base<cv::Mat, std::allocator<cv::Mat>>::_Vector_impl_data" }
%"struct.std::_Vector_base<cv::Mat, std::allocator<cv::Mat>>::_Vector_impl_data" = type { ptr, ptr, ptr }
%"struct.cv::Chunk" = type { %"class.std::vector.3" }
%"class.std::vector.21" = type { %"struct.std::_Vector_base.22" }
%"struct.std::_Vector_base.22" = type { %"struct.std::_Vector_base<cv::Chunk, std::allocator<cv::Chunk>>::_Vector_impl" }
%"struct.std::_Vector_base<cv::Chunk, std::allocator<cv::Chunk>>::_Vector_impl" = type { %"struct.std::_Vector_base<cv::Chunk, std::allocator<cv::Chunk>>::_Vector_impl_data" }
%"struct.std::_Vector_base<cv::Chunk, std::allocator<cv::Chunk>>::_Vector_impl_data" = type { ptr, ptr, ptr }

; Function Attrs: mustprogress uwtable
define hidden void @_ZN2cv10PngDecoder11ClearPngPtrEv(ptr noundef nonnull align 8 dereferenceable(3976) %0) #5 align 2 {
  %2 = alloca ptr, align 8
  store ptr %0, ptr %2, align 8, !tbaa !50
  %3 = load ptr, ptr %2, align 8
  %4 = getelementptr inbounds nuw %"class.cv::PngDecoder", ptr %3, i32 0, i32 1
  %5 = load ptr, ptr %4, align 8, !tbaa !54
  %6 = icmp ne ptr %5, null
  br i1 %6, label %7, label %11

7:                                                ; preds = %1
  %8 = getelementptr inbounds nuw %"class.cv::PngDecoder", ptr %3, i32 0, i32 1
  %9 = getelementptr inbounds nuw %"class.cv::PngDecoder", ptr %3, i32 0, i32 2
  %10 = getelementptr inbounds nuw %"class.cv::PngDecoder", ptr %3, i32 0, i32 3
  call void @png_destroy_read_struct(ptr noundef %8, ptr noundef %9, ptr noundef %10)
  br label %11

11:                                               ; preds = %7, %1
  %12 = getelementptr inbounds nuw %"class.cv::PngDecoder", ptr %3, i32 0, i32 1
  store ptr null, ptr %12, align 8, !tbaa !54
  %13 = getelementptr inbounds nuw %"class.cv::PngDecoder", ptr %3, i32 0, i32 2
  store ptr null, ptr %13, align 8, !tbaa !96
  %14 = getelementptr inbounds nuw %"class.cv::PngDecoder", ptr %3, i32 0, i32 3
  store ptr null, ptr %14, align 8, !tbaa !97
  ret void
}