; Function Attrs: mustprogress uwtable
define hidden void @_ZN2cv10PngDecoder11ClearPngPtrEv(ptr noundef nonnull align 8 dereferenceable(3976) %0) local_unnamed_addr #5 align 2 {
  %2 = getelementptr inbounds nuw i8, ptr %0, i64 368
  %3 = load ptr, ptr %2, align 8, !tbaa !100
  %.not = icmp eq ptr %3, null
  br i1 %.not, label %7, label %4

4:                                                ; preds = %1
  %5 = getelementptr inbounds nuw i8, ptr %0, i64 376
  %6 = getelementptr inbounds nuw i8, ptr %0, i64 384
  tail call void @png_destroy_read_struct(ptr noundef nonnull %2, ptr noundef nonnull %5, ptr noundef nonnull %6)
  br label %7

7:                                                ; preds = %4, %1
  tail call void @llvm.memset.p0.i64(ptr noundef nonnull align 8 dereferenceable(24) %2, i8 0, i64 24, i1 false)
  ret void
}